(dp0
S'C1510508'
p1
I53
sS'C3810842'
p2
I43
sS'C3665309'
p3
I5
sS'C0441233'
p4
I87
sS'C0719635'
p5
I16
sS'C0030193'
p6
I12
sS'C0694547'
p7
I86
sS'C0162512'
p8
I75
sS'C1552826'
p9
I72
sS'C0175659'
p10
I79
sS'C1280202'
p11
I62
sS'C1855179'
p12
I27
sS'C0280547'
p13
I28
sS'C0524468'
p14
I29
sS'C0524469'
p15
I30
sS'C1527071'
p16
I31
sS'C1283792'
p17
I32
sS'C1378698'
p18
I46
sS'C0074299'
p19
I34
sS'C0456378'
p20
I54
sS'C0882090'
p21
I3
sS'C0878010'
p22
I57
sS'C0869975'
p23
I36
sS'C0719205'
p24
I70
sS'C0018670'
p25
I9
sS'C0221590'
p26
I10
sS'C0043189'
p27
I0
sS'C0332575'
p28
I47
sS'C0518090'
p29
I19
sS'C0882088'
p30
I20
sS'C1550646'
p31
I55
sS'C1708637'
p32
I58
sS'C0036473'
p33
I21
sS'C3644708'
p34
I69
sS'C0656193'
p35
I24
sS'C2598155'
p36
I25
sS'C0008957'
p37
I48
sS'C1550557'
p38
I44
sS'C0237849'
p39
I78
sS'C0015392'
p40
I61
sS'C1553738'
p41
I64
sS'C0007465'
p42
I91
sS'C1285009'
p43
I76
sS'C0872304'
p44
I35
sS'C0015726'
p45
I50
sS'C2087366'
p46
I51
sS'C1882272'
p47
I1
sS'C0310395'
p48
I37
sS'C0310394'
p49
I38
sS'C0310396'
p50
I39
sS'C0310393'
p51
I41
sS'C0310399'
p52
I42
sS'C0310398'
p53
I40
sS'C0349674'
p54
I81
sS'C1706368'
p55
I45
sS'C3889831'
p56
I17
sS'C1269079'
p57
I73
sS'C1546691'
p58
I56
sS'C1879652'
p59
I68
sS'C1557397'
p60
I23
sS'C1697268'
p61
I49
sS'C1140621'
p62
I77
sS'C0041044'
p63
I52
sS'C1261259'
p64
I59
sS'C0000723'
p65
I65
sS'C1446899'
p66
I71
sS'C0000726'
p67
I84
sS'C0262878'
p68
I2
sS'C0493327'
p69
I8
sS'C0399080'
p70
I66
sS'C1550272'
p71
I63
sS'C1657858'
p72
I7
sS'C1554100'
p73
I4
sS'C0796494'
p74
I67
sS'C1306577'
p75
I90
sS'C4085212'
p76
I13
sS'C4085211'
p77
I14
sS'C4085210'
p78
I15
sS'C0278651'
p79
I11
sS'C0222045'
p80
I82
sS'C0000737'
p81
I83
sS'C1547280'
p82
I18
sS'C0011065'
p83
I88
sS'C2984058'
p84
I6
sS'C1559081'
p85
I89
sS'C0684254'
p86
I80
sS'C0423899'
p87
I60
sS'C0037004'
p88
I26
sS'C2698635'
p89
I22
sS'C0805701'
p90
I33
sS'C0023216'
p91
I74
sS'C1548899'
p92
I85
s.