ccopy_reg
_reconstructor
p0
(c__main__
Vocabulary
p1
c__builtin__
object
p2
Ntp3
Rp4
(dp5
S'idx2concept'
p6
(dp7
I0
S'C0043189'
p8
sI1
S'C1882272'
p9
sI2
S'C0262878'
p10
sI3
S'C0882090'
p11
sI4
S'C1554100'
p12
sI5
S'C3665309'
p13
sI6
S'C2984058'
p14
sI7
S'C1657858'
p15
sI8
S'C0493327'
p16
sI9
S'C0018670'
p17
sI10
S'C0221590'
p18
sI11
S'C0278651'
p19
sI12
S'C0030193'
p20
sI13
S'C4085212'
p21
sI14
S'C4085211'
p22
sI15
S'C4085210'
p23
sI16
S'C0719635'
p24
sI17
S'C3889831'
p25
sI18
S'C1547280'
p26
sI19
S'C0518090'
p27
sI20
S'C0882088'
p28
sI21
S'C0036473'
p29
sI22
S'C2698635'
p30
sI23
S'C1557397'
p31
sI24
S'C0656193'
p32
sI25
S'C2598155'
p33
sI26
S'C0037004'
p34
sI27
S'C1855179'
p35
sI28
S'C0280547'
p36
sI29
S'C0524468'
p37
sI30
S'C0524469'
p38
sI31
S'C1527071'
p39
sI32
S'C1283792'
p40
sI33
S'C0805701'
p41
sI34
S'C0074299'
p42
sI35
S'C0872304'
p43
sI36
S'C0869975'
p44
sI37
S'C0310395'
p45
sI38
S'C0310394'
p46
sI39
S'C0310396'
p47
sI40
S'C0310398'
p48
sI41
S'C0310393'
p49
sI42
S'C0310399'
p50
sI43
S'C3810842'
p51
sI44
S'C1550557'
p52
sI45
S'C1706368'
p53
sI46
S'C1378698'
p54
sI47
S'C0332575'
p55
sI48
S'C0008957'
p56
sI49
S'C1697268'
p57
sI50
S'C0015726'
p58
sI51
S'C2087366'
p59
sI52
S'C0041044'
p60
sI53
S'C1510508'
p61
sI54
S'C0456378'
p62
sI55
S'C1550646'
p63
sI56
S'C1546691'
p64
sI57
S'C0878010'
p65
sI58
S'C1708637'
p66
sI59
S'C1261259'
p67
sI60
S'C0423899'
p68
sI61
S'C0015392'
p69
sI62
S'C1280202'
p70
sI63
S'C1550272'
p71
sI64
S'C1553738'
p72
sI65
S'C0000723'
p73
sI66
S'C0399080'
p74
sI67
S'C0796494'
p75
sI68
S'C1879652'
p76
sI69
S'C3644708'
p77
sI70
S'C0719205'
p78
sI71
S'C1446899'
p79
sI72
S'C1552826'
p80
sI73
S'C1269079'
p81
sI74
S'C0023216'
p82
sI75
S'C0162512'
p83
sI76
S'C1285009'
p84
sI77
S'C1140621'
p85
sI78
S'C0237849'
p86
sI79
S'C0175659'
p87
sI80
S'C0684254'
p88
sI81
S'C0349674'
p89
sI82
S'C0222045'
p90
sI83
S'C0000737'
p91
sI84
S'C0000726'
p92
sI85
S'C1548899'
p93
sI86
S'C0694547'
p94
sI87
S'C0441233'
p95
sI88
S'C0011065'
p96
sI89
S'C1559081'
p97
sI90
S'C1306577'
p98
sI91
S'C0007465'
p99
ssS'concept2means'
p100
(dp101
sS'concept2idx'
p102
(dp103
S'C1510508'
p104
I53
sS'C3810842'
p105
I43
sS'C1855179'
p106
I27
sS'C0441233'
p107
I87
sS'C0278651'
p108
I11
sS'C0043189'
p109
I0
sS'C0162512'
p110
I75
sS'C1306577'
p111
I90
sS'C0175659'
p112
I79
sS'C1280202'
p113
I62
sS'C0030193'
p114
I12
sS'C0280547'
p115
I28
sS'C0524468'
p116
I29
sS'C0524469'
p117
I30
sS'C1527071'
p118
I31
sS'C1283792'
p119
I32
sS'C1378698'
p120
I46
sS'C0074299'
p121
I34
sS'C0456378'
p122
I54
sS'C0882090'
p123
I3
sS'C0878010'
p124
I57
sS'C0869975'
p125
I36
sS'C0719205'
p126
I70
sS'C0018670'
p127
I9
sS'C0221590'
p128
I10
sS'C0694547'
p129
I86
sS'C0332575'
p130
I47
sS'C0518090'
p131
I19
sS'C0882088'
p132
I20
sS'C1550646'
p133
I55
sS'C1708637'
p134
I58
sS'C0036473'
p135
I21
sS'C3644708'
p136
I69
sS'C0656193'
p137
I24
sS'C2598155'
p138
I25
sS'C0008957'
p139
I48
sS'C1550557'
p140
I44
sS'C0237849'
p141
I78
sS'C0015392'
p142
I61
sS'C1553738'
p143
I64
sS'C0007465'
p144
I91
sS'C1285009'
p145
I76
sS'C0872304'
p146
I35
sS'C0015726'
p147
I50
sS'C2087366'
p148
I51
sS'C1882272'
p149
I1
sS'C0310395'
p150
I37
sS'C0310394'
p151
I38
sS'C0310396'
p152
I39
sS'C0310393'
p153
I41
sS'C0310399'
p154
I42
sS'C0310398'
p155
I40
sS'C0349674'
p156
I81
sS'C1706368'
p157
I45
sS'C3889831'
p158
I17
sS'C3665309'
p159
I5
sS'C1269079'
p160
I73
sS'C1546691'
p161
I56
sS'C1879652'
p162
I68
sS'C1557397'
p163
I23
sS'C1697268'
p164
I49
sS'C1140621'
p165
I77
sS'C0041044'
p166
I52
sS'C1261259'
p167
I59
sS'C0000723'
p168
I65
sS'C1446899'
p169
I71
sS'C0000726'
p170
I84
sS'C0262878'
p171
I2
sS'C1554100'
p172
I4
sS'C0399080'
p173
I66
sS'C1550272'
p174
I63
sS'C1657858'
p175
I7
sS'C0493327'
p176
I8
sS'C0796494'
p177
I67
sS'C1552826'
p178
I72
sS'C4085212'
p179
I13
sS'C4085211'
p180
I14
sS'C4085210'
p181
I15
sS'C0719635'
p182
I16
sS'C0222045'
p183
I82
sS'C0000737'
p184
I83
sS'C1547280'
p185
I18
sS'C0011065'
p186
I88
sS'C2984058'
p187
I6
sS'C1559081'
p188
I89
sS'C0684254'
p189
I80
sS'C0423899'
p190
I60
sS'C0037004'
p191
I26
sS'C2698635'
p192
I22
sS'C0805701'
p193
I33
sS'C0023216'
p194
I74
sS'C1548899'
p195
I85
ssb.